; Function Attrs: nounwind uwtable
define range(i32 0, 2) i32 @Acec_DetectBoothTwo(ptr noundef readonly captures(none) %0, ptr noundef %1, ptr noundef writeonly captures(none) %2) local_unnamed_addr #0 {
  %4 = alloca ptr, align 8
  %5 = alloca ptr, align 8
  call void @llvm.lifetime.start.p0(i64 8, ptr nonnull %4) #10
  call void @llvm.lifetime.start.p0(i64 8, ptr nonnull %5) #10
  %6 = call i32 @Gia_ObjRecognizeExor(ptr noundef %1, ptr noundef nonnull %4, ptr noundef nonnull %5) #10
  %.not = icmp eq i32 %6, 0
  br i1 %.not, label %29, label %7

7:                                                ; preds = %3
  %8 = load ptr, ptr %4, align 8, !tbaa !3
  %9 = ptrtoint ptr %8 to i64
  %10 = and i64 %9, -2
  %11 = inttoptr i64 %10 to ptr
  store ptr %11, ptr %4, align 8, !tbaa !3
  %12 = load ptr, ptr %5, align 8, !tbaa !3
  %13 = ptrtoint ptr %12 to i64
  %14 = and i64 %13, -2
  %15 = inttoptr i64 %14 to ptr
  store ptr %15, ptr %5, align 8, !tbaa !3
  %16 = call i32 @Acec_DetectBoothTwoXor(ptr noundef %0, ptr noundef %11, ptr noundef %2)
  %.not9 = icmp eq i32 %16, 0
  %17 = load ptr, ptr %5, align 8, !tbaa !3
  br i1 %.not9, label %18, label %.sink.split

18:                                               ; preds = %7
  %19 = call i32 @Acec_DetectBoothTwoXor(ptr noundef %0, ptr noundef %17, ptr noundef %2)
  %.not10 = icmp eq i32 %19, 0
  br i1 %.not10, label %29, label %20

20:                                               ; preds = %18
  %21 = load ptr, ptr %4, align 8, !tbaa !3
  br label %.sink.split

.sink.split:                                      ; preds = %7, %20
  %.sink = phi ptr [ %21, %20 ], [ %17, %7 ]
  %22 = getelementptr i8, ptr %0, i64 32
  %.val = load ptr, ptr %22, align 8, !tbaa !8
  %23 = ptrtoint ptr %.sink to i64
  %24 = ptrtoint ptr %.val to i64
  %25 = sub i64 %23, %24
  %26 = sdiv exact i64 %25, 12
  %27 = trunc i64 %26 to i32
  %28 = getelementptr inbounds nuw i8, ptr %2, i64 8
  store i32 %27, ptr %28, align 4, !tbaa !29
  br label %29

29:                                               ; preds = %.sink.split, %18, %3
  %.0 = phi i32 [ 0, %3 ], [ 0, %18 ], [ 1, %.sink.split ]
  call void @llvm.lifetime.end.p0(i64 8, ptr nonnull %5) #10
  call void @llvm.lifetime.end.p0(i64 8, ptr nonnull %4) #10
  ret i32 %.0
}